(lp0
(lp1
S'<s>'
p2
aS'a'
p3
aS'b'
p4
aS'<unk>'
p5
aS'</s>'
p6
aa(lp7
g2
ag3
ag3
ag3
ag3
ag4
ag4
ag5
ag6
aa(lp8
g2
ag3
ag3
ag4
ag4
ag4
ag4
ag5
ag6
aa(lp9
g2
ag3
ag3
ag5
ag4
ag3
ag4
ag6
aa(lp10
g2
ag3
ag3
ag3
ag3
ag3
ag6
aa(lp11
g2
ag4
ag3
ag3
ag4
ag4
ag6
aa(lp12
g2
ag4
ag4
ag3
ag3
ag3
ag6
aa(lp13
g2
ag4
ag4
ag5
ag6
aa(lp14
g2
ag4
ag4
ag6
aa(lp15
g2
ag4
ag6
aa.